; Function Attrs: mustprogress nofree norecurse nosync nounwind memory(argmem: write) uwtable
define dso_local void @_ZN29btGeneric6DofSpringConstraint4initEv(ptr nocapture noundef nonnull writeonly align 8 dereferenceable(1412) %this) local_unnamed_addr #3 align 2 {
entry:
  %add.ptr = getelementptr inbounds i8, ptr %this, i64 8
  store i32 9, ptr %add.ptr, align 8
  %m_springEnabled = getelementptr inbounds i8, ptr %this, i64 1333
  %m_equilibriumPoint = getelementptr inbounds i8, ptr %this, i64 1340
  %m_springDamping = getelementptr inbounds i8, ptr %this, i64 1388
  tail call void @llvm.memset.p0.i64(ptr noundef nonnull align 1 dereferenceable(6) %m_springEnabled, i8 0, i64 6, i1 false)
  tail call void @llvm.memset.p0.i64(ptr noundef nonnull align 4 dereferenceable(48) %m_equilibriumPoint, i8 0, i64 48, i1 false)
  br label %for.body

for.body:                                         ; preds = %entry, %for.body
  %indvars.iv = phi i64 [ 0, %entry ], [ %indvars.iv.next, %for.body ]
  %arrayidx7 = getelementptr inbounds [6 x float], ptr %m_springDamping, i64 0, i64 %indvars.iv
  store float 1.000000e+00, ptr %arrayidx7, align 4
  %indvars.iv.next = add nuw nsw i64 %indvars.iv, 1
  %exitcond.not = icmp eq i64 %indvars.iv.next, 6
  br i1 %exitcond.not, label %for.end, label %for.body, !llvm.loop !5

for.end:                                          ; preds = %for.body
  ret void
}